target datalayout = "e-m:e-p270:32:32-p271:32:32-p272:64:64-i64:64-i128:128-f80:128-n8:16:32:64-S128"
target triple = "x86_64-pc-linux-gnu"

%struct.cube = type { i8, i8, i16, i16, i16, ptr, ptr, ptr, ptr }

@nCubesInGroup = internal global i32 0, align 4
@fWorking = internal global i32 0, align 4
@LastGroup = internal global i32 0, align 4
@ELCubes = internal global [32 x ptr] zeroinitializer, align 16
@VisitedGroups = internal global i32 0, align 4

; Function Attrs: nounwind uwtable
define void @ExorLinkCubeIteratorCleanUp(i32 noundef %0) #0 {
  %2 = alloca i32, align 4
  %3 = alloca i32, align 4
  store i32 %0, ptr %2, align 4, !tbaa !10
  call void @llvm.lifetime.start.p0(i64 4, ptr %3) #4
  %4 = load i32, ptr %2, align 4, !tbaa !10
  %5 = icmp eq i32 %4, 0
  br i1 %5, label %6, label %28

6:                                                ; preds = %1
  store i32 0, ptr %3, align 4, !tbaa !10
  br label %7

7:                                                ; preds = %24, %6
  %8 = load i32, ptr %3, align 4, !tbaa !10
  %9 = load i32, ptr @nCubesInGroup, align 4, !tbaa !10
  %10 = icmp slt i32 %8, %9
  br i1 %10, label %11, label %27

11:                                               ; preds = %7
  %12 = load i32, ptr %3, align 4, !tbaa !10
  %13 = sext i32 %12 to i64
  %14 = getelementptr inbounds [32 x ptr], ptr @ELCubes, i64 0, i64 %13
  %15 = load ptr, ptr %14, align 8, !tbaa !8
  %16 = getelementptr inbounds nuw %struct.cube, ptr %15, i32 0, i32 0
  store i8 0, ptr %16, align 8, !tbaa !54
  %17 = load i32, ptr %3, align 4, !tbaa !10
  %18 = sext i32 %17 to i64
  %19 = getelementptr inbounds [32 x ptr], ptr @ELCubes, i64 0, i64 %18
  %20 = load ptr, ptr %19, align 8, !tbaa !8
  call void @AddToFreeCubes(ptr noundef %20)
  %21 = load i32, ptr %3, align 4, !tbaa !10
  %22 = sext i32 %21 to i64
  %23 = getelementptr inbounds [32 x ptr], ptr @ELCubes, i64 0, i64 %22
  store ptr null, ptr %23, align 8, !tbaa !8
  br label %24

24:                                               ; preds = %11
  %25 = load i32, ptr %3, align 4, !tbaa !10
  %26 = add nsw i32 %25, 1
  store i32 %26, ptr %3, align 4, !tbaa !10
  br label %7, !llvm.loop !55

27:                                               ; preds = %7
  br label %66

28:                                               ; preds = %1
  store i32 0, ptr %3, align 4, !tbaa !10
  br label %29

29:                                               ; preds = %62, %28
  %30 = load i32, ptr %3, align 4, !tbaa !10
  %31 = load i32, ptr @nCubesInGroup, align 4, !tbaa !10
  %32 = icmp slt i32 %30, %31
  br i1 %32, label %33, label %65

33:                                               ; preds = %29
  %34 = load i32, ptr %3, align 4, !tbaa !10
  %35 = sext i32 %34 to i64
  %36 = getelementptr inbounds [32 x ptr], ptr @ELCubes, i64 0, i64 %35
  %37 = load ptr, ptr %36, align 8, !tbaa !8
  %38 = icmp ne ptr %37, null
  br i1 %38, label %39, label %61

39:                                               ; preds = %33
  %40 = load i32, ptr %3, align 4, !tbaa !10
  %41 = sext i32 %40 to i64
  %42 = getelementptr inbounds [32 x ptr], ptr @ELCubes, i64 0, i64 %41
  %43 = load ptr, ptr %42, align 8, !tbaa !8
  %44 = getelementptr inbounds nuw %struct.cube, ptr %43, i32 0, i32 0
  store i8 0, ptr %44, align 8, !tbaa !54
  %45 = load i32, ptr @LastGroup, align 4, !tbaa !10
  %46 = load i32, ptr %3, align 4, !tbaa !10
  %47 = sext i32 %46 to i64
  %48 = getelementptr inbounds [32 x i32], ptr @s_BitMasks, i64 0, i64 %47
  %49 = load i32, ptr %48, align 4, !tbaa !10
  %50 = and i32 %45, %49
  %51 = icmp eq i32 %50, 0
  br i1 %51, label %52, label %57

52:                                               ; preds = %39
  %53 = load i32, ptr %3, align 4, !tbaa !10
  %54 = sext i32 %53 to i64
  %55 = getelementptr inbounds [32 x ptr], ptr @ELCubes, i64 0, i64 %54
  %56 = load ptr, ptr %55, align 8, !tbaa !8
  call void @AddToFreeCubes(ptr noundef %56)
  br label %57

57:                                               ; preds = %52, %39
  %58 = load i32, ptr %3, align 4, !tbaa !10
  %59 = sext i32 %58 to i64
  %60 = getelementptr inbounds [32 x ptr], ptr @ELCubes, i64 0, i64 %59
  store ptr null, ptr %60, align 8, !tbaa !8
  br label %61

61:                                               ; preds = %57, %33
  br label %62

62:                                               ; preds = %61
  %63 = load i32, ptr %3, align 4, !tbaa !10
  %64 = add nsw i32 %63, 1
  store i32 %64, ptr %3, align 4, !tbaa !10
  br label %29, !llvm.loop !56

65:                                               ; preds = %29
  br label %66

66:                                               ; preds = %65, %27
  store i32 0, ptr @VisitedGroups, align 4, !tbaa !10
  store i32 0, ptr @fWorking, align 4, !tbaa !10
  call void @llvm.lifetime.end.p0(i64 4, ptr %3) #4
  ret void
}