; Function Attrs: nounwind uwtable
define void @ExorLinkCubeIteratorCleanUp(i32 noundef %0) local_unnamed_addr #0 {
  %2 = icmp eq i32 %0, 0
  %3 = load i32, ptr @nCubesInGroup, align 4, !tbaa !3
  %4 = icmp sgt i32 %3, 0
  br i1 %2, label %.preheader, label %.preheader14

.preheader14:                                     ; preds = %1
  br i1 %4, label %.lr.ph, label %.loopexit

.preheader:                                       ; preds = %1
  br i1 %4, label %.lr.ph18, label %.loopexit

.lr.ph18:                                         ; preds = %.preheader, %.lr.ph18
  %indvars.iv21 = phi i64 [ %indvars.iv.next22, %.lr.ph18 ], [ 0, %.preheader ]
  %5 = getelementptr inbounds nuw [32 x ptr], ptr @ELCubes, i64 0, i64 %indvars.iv21
  %6 = load ptr, ptr %5, align 8, !tbaa !7
  store i8 0, ptr %6, align 8, !tbaa !49
  tail call void @AddToFreeCubes(ptr noundef nonnull %6) #5
  store ptr null, ptr %5, align 8, !tbaa !7
  %indvars.iv.next22 = add nuw nsw i64 %indvars.iv21, 1
  %7 = load i32, ptr @nCubesInGroup, align 4, !tbaa !3
  %8 = sext i32 %7 to i64
  %9 = icmp slt i64 %indvars.iv.next22, %8
  br i1 %9, label %.lr.ph18, label %.loopexit, !llvm.loop !50

.lr.ph:                                           ; preds = %.preheader14, %21
  %.pre24 = phi i32 [ %.pre25, %21 ], [ %3, %.preheader14 ]
  %10 = phi i32 [ %22, %21 ], [ %3, %.preheader14 ]
  %indvars.iv = phi i64 [ %indvars.iv.next, %21 ], [ 0, %.preheader14 ]
  %11 = getelementptr inbounds nuw [32 x ptr], ptr @ELCubes, i64 0, i64 %indvars.iv
  %12 = load ptr, ptr %11, align 8, !tbaa !7
  %.not = icmp eq ptr %12, null
  br i1 %.not, label %21, label %13

13:                                               ; preds = %.lr.ph
  store i8 0, ptr %12, align 8, !tbaa !49
  %14 = load i32, ptr @LastGroup, align 4, !tbaa !3
  %15 = getelementptr inbounds nuw [32 x i32], ptr @s_BitMasks, i64 0, i64 %indvars.iv
  %16 = load i32, ptr %15, align 4, !tbaa !3
  %17 = and i32 %16, %14
  %18 = icmp eq i32 %17, 0
  br i1 %18, label %19, label %20

19:                                               ; preds = %13
  tail call void @AddToFreeCubes(ptr noundef nonnull %12) #5
  %.pre.pre = load i32, ptr @nCubesInGroup, align 4, !tbaa !3
  br label %20

20:                                               ; preds = %19, %13
  %.pre = phi i32 [ %.pre.pre, %19 ], [ %.pre24, %13 ]
  store ptr null, ptr %11, align 8, !tbaa !7
  br label %21

21:                                               ; preds = %.lr.ph, %20
  %.pre25 = phi i32 [ %.pre24, %.lr.ph ], [ %.pre, %20 ]
  %22 = phi i32 [ %10, %.lr.ph ], [ %.pre, %20 ]
  %indvars.iv.next = add nuw nsw i64 %indvars.iv, 1
  %23 = sext i32 %22 to i64
  %24 = icmp slt i64 %indvars.iv.next, %23
  br i1 %24, label %.lr.ph, label %.loopexit, !llvm.loop !51

.loopexit:                                        ; preds = %21, %.lr.ph18, %.preheader14, %.preheader
  store i32 0, ptr @VisitedGroups, align 4, !tbaa !3
  ret void
}